; Function Attrs: nofree norecurse nosync nounwind memory(argmem: readwrite) uwtable
define range(i32 -140, -2147483648) i32 @GetOctetString(ptr noundef readonly captures(address_is_null) %0, ptr noundef captures(none) %1, ptr noundef writeonly captures(none) %2, i32 noundef %3) local_unnamed_addr #6 {
  %5 = load i32, ptr %1, align 4, !tbaa !22
  %.not63.i.i = icmp eq ptr %0, null
  br i1 %.not63.i.i, label %GetASNHeader.exit, label %6

6:                                                ; preds = %4
  %7 = add i32 %5, 1
  %8 = icmp ugt i32 %7, %3
  br i1 %8, label %GetASNHeader.exit, label %GetASNTag.exit.i.i

GetASNTag.exit.i.i:                               ; preds = %6
  %9 = zext i32 %5 to i64
  %10 = getelementptr inbounds nuw i8, ptr %0, i64 %9
  %11 = load i8, ptr %10, align 1, !tbaa !3
  %.not18.i.i = icmp eq i8 %11, 4
  br i1 %.not18.i.i, label %12, label %GetASNHeader.exit

12:                                               ; preds = %GetASNTag.exit.i.i
  %13 = add i32 %5, 2
  %14 = icmp ugt i32 %13, %3
  br i1 %14, label %GetASNHeader.exit, label %15

15:                                               ; preds = %12
  %16 = zext i32 %7 to i64
  %17 = getelementptr inbounds nuw i8, ptr %0, i64 %16
  %18 = load i8, ptr %17, align 1, !tbaa !3
  %19 = zext i8 %18 to i32
  %20 = icmp slt i8 %18, 0
  br i1 %20, label %21, label %48

21:                                               ; preds = %15
  %22 = and i32 %19, 127
  %23 = icmp eq i8 %18, -128
  br i1 %23, label %32, label %24

24:                                               ; preds = %21
  %25 = icmp eq i32 %22, 1
  br i1 %25, label %.thread63.i.i.i, label %26

26:                                               ; preds = %24
  %27 = icmp samesign ugt i32 %22, 4
  br i1 %27, label %GetASNHeader.exit, label %28

28:                                               ; preds = %26
  %29 = shl nuw nsw i32 %22, 3
  %30 = add nsw i32 %29, -8
  %31 = shl nuw nsw i32 1, %30
  br label %32

32:                                               ; preds = %28, %21
  %.0.i.i.i = phi i32 [ %31, %28 ], [ 0, %21 ]
  %33 = add i32 %22, %13
  %34 = icmp ugt i32 %33, %3
  br i1 %34, label %GetASNHeader.exit, label %.preheader.i.i.i

.thread63.i.i.i:                                  ; preds = %24
  %35 = add i32 %5, 3
  %36 = icmp ugt i32 %35, %3
  br i1 %36, label %GetASNHeader.exit, label %.lr.ph.preheader.i.i.i

.preheader.i.i.i:                                 ; preds = %32
  %.not57.i.i.i = icmp eq i32 %22, 0
  br i1 %.not57.i.i.i, label %._crit_edge.i.i.i, label %.lr.ph.preheader.i.i.i

.lr.ph.preheader.i.i.i:                           ; preds = %.preheader.i.i.i, %.thread63.i.i.i
  %.06568.i.i.i = phi i32 [ %.0.i.i.i, %.preheader.i.i.i ], [ 128, %.thread63.i.i.i ]
  %37 = phi i32 [ %33, %.preheader.i.i.i ], [ %35, %.thread63.i.i.i ]
  br label %.lr.ph.i.i.i

.lr.ph.i.i.i:                                     ; preds = %.lr.ph.i.i.i, %.lr.ph.preheader.i.i.i
  %.03560.i.i.i = phi i32 [ %38, %.lr.ph.i.i.i ], [ %22, %.lr.ph.preheader.i.i.i ]
  %.159.i.i.i = phi i32 [ %39, %.lr.ph.i.i.i ], [ %13, %.lr.ph.preheader.i.i.i ]
  %.13958.i.i.i = phi i32 [ %45, %.lr.ph.i.i.i ], [ 0, %.lr.ph.preheader.i.i.i ]
  %38 = add nsw i32 %.03560.i.i.i, -1
  %39 = add i32 %.159.i.i.i, 1
  %40 = zext i32 %.159.i.i.i to i64
  %41 = getelementptr inbounds nuw i8, ptr %0, i64 %40
  %42 = load i8, ptr %41, align 1, !tbaa !3
  %43 = shl i32 %.13958.i.i.i, 8
  %44 = zext i8 %42 to i32
  %45 = or disjoint i32 %43, %44
  %.not.i.i.i = icmp eq i32 %38, 0
  br i1 %.not.i.i.i, label %._crit_edge.i.i.i, label %.lr.ph.i.i.i, !llvm.loop !35

._crit_edge.i.i.i:                                ; preds = %.lr.ph.i.i.i, %.preheader.i.i.i
  %.06569.i.i.i = phi i32 [ %.0.i.i.i, %.preheader.i.i.i ], [ %.06568.i.i.i, %.lr.ph.i.i.i ]
  %.139.lcssa.i.i.i = phi i32 [ 0, %.preheader.i.i.i ], [ %45, %.lr.ph.i.i.i ]
  %.1.lcssa.i.i.i = phi i32 [ %13, %.preheader.i.i.i ], [ %37, %.lr.ph.i.i.i ]
  %46 = icmp sgt i32 %.139.lcssa.i.i.i, -1
  %47 = icmp sge i32 %.139.lcssa.i.i.i, %.06569.i.i.i
  %or.cond55.i.i.i = select i1 %46, i1 %47, i1 false
  br i1 %or.cond55.i.i.i, label %48, label %GetASNHeader.exit

48:                                               ; preds = %._crit_edge.i.i.i, %15
  %.240.i.i.i = phi i32 [ %19, %15 ], [ %.139.lcssa.i.i.i, %._crit_edge.i.i.i ]
  %.2.i.i.i = phi i32 [ %13, %15 ], [ %.1.lcssa.i.i.i, %._crit_edge.i.i.i ]
  %49 = add i32 %.2.i.i.i, %.240.i.i.i
  %50 = icmp ugt i32 %49, %3
  br i1 %50, label %GetASNHeader.exit, label %select.unfold.i.i

select.unfold.i.i:                                ; preds = %48
  store i32 %.240.i.i.i, ptr %2, align 4, !tbaa !22
  store i32 %.2.i.i.i, ptr %1, align 4, !tbaa !22
  br label %GetASNHeader.exit

GetASNHeader.exit:                                ; preds = %4, %6, %GetASNTag.exit.i.i, %12, %26, %32, %.thread63.i.i.i, %._crit_edge.i.i.i, %48, %select.unfold.i.i
  %.4.i.i = phi i32 [ %.240.i.i.i, %select.unfold.i.i ], [ -140, %.thread63.i.i.i ], [ -140, %26 ], [ -140, %32 ], [ -140, %._crit_edge.i.i.i ], [ -140, %48 ], [ -140, %12 ], [ -140, %GetASNTag.exit.i.i ], [ -140, %6 ], [ -140, %4 ]
  ret i32 %.4.i.i
}